; Function Attrs: mustprogress uwtable
define void @proj_operation_factory_context_set_allow_ballpark_transformations(ptr noundef %0, ptr noundef readonly %1, i32 noundef %2) local_unnamed_addr #2 personality ptr @__gxx_personality_v0 {
  %4 = icmp eq ptr %0, null
  br i1 %4, label %5, label %7

5:                                                ; preds = %3
  %6 = tail call noundef ptr @_Z18pj_get_default_ctxv()
  br label %7

7:                                                ; preds = %3, %5
  %.0 = phi ptr [ %6, %5 ], [ %0, %3 ]
  %.not = icmp eq ptr %1, null
  br i1 %.not, label %8, label %9

8:                                                ; preds = %7
  tail call void @_Z22proj_context_errno_setP6pj_ctxi(ptr noundef %.0, i32 noundef 4097)
  tail call fastcc void @_ZL14proj_log_errorP6pj_ctxPKcS2_(ptr noundef %.0, ptr noundef nonnull @__FUNCTION__.proj_operation_factory_context_set_allow_ballpark_transformations, ptr noundef nonnull @.str.2)
  br label %25

9:                                                ; preds = %7
  %10 = load ptr, ptr %1, align 8
  %11 = icmp ne i32 %2, 0
  invoke void @_ZN5osgeo4proj9operation26CoordinateOperationContext31setAllowBallparkTransformationsEb(ptr noundef nonnull align 8 dereferenceable(16) %10, i1 noundef zeroext %11)
          to label %25 unwind label %12

12:                                               ; preds = %9
  %13 = landingpad { ptr, i32 }
          catch ptr @_ZTISt9exception
  %14 = extractvalue { ptr, i32 } %13, 1
  %15 = tail call i32 @llvm.eh.typeid.for(ptr nonnull @_ZTISt9exception) #27
  %16 = icmp eq i32 %14, %15
  br i1 %16, label %17, label %28

17:                                               ; preds = %12
  %18 = extractvalue { ptr, i32 } %13, 0
  %19 = tail call ptr @__cxa_begin_catch(ptr %18) #27
  %20 = load ptr, ptr %19, align 8
  %21 = getelementptr inbounds i8, ptr %20, i64 16
  %22 = load ptr, ptr %21, align 8
  %23 = tail call noundef ptr %22(ptr noundef nonnull align 8 dereferenceable(8) %19) #27
  invoke fastcc void @_ZL14proj_log_errorP6pj_ctxPKcS2_(ptr noundef %.0, ptr noundef nonnull @__FUNCTION__.proj_operation_factory_context_set_allow_ballpark_transformations, ptr noundef %23)
          to label %24 unwind label %26

24:                                               ; preds = %17
  tail call void @__cxa_end_catch()
  br label %25

25:                                               ; preds = %9, %24, %8
  ret void

26:                                               ; preds = %17
  %27 = landingpad { ptr, i32 }
          cleanup
  invoke void @__cxa_end_catch()
          to label %28 unwind label %29

28:                                               ; preds = %26, %12
  %.merged = phi { ptr, i32 } [ %27, %26 ], [ %13, %12 ]
  resume { ptr, i32 } %.merged

29:                                               ; preds = %26
  %30 = landingpad { ptr, i32 }
          catch ptr null
  %31 = extractvalue { ptr, i32 } %30, 0
  tail call void @__clang_call_terminate(ptr %31) #31
  unreachable
}